target datalayout = "e-m:e-p270:32:32-p271:32:32-p272:64:64-i64:64-i128:128-f80:128-n8:16:32:64-S128"
target triple = "x86_64-pc-linux-gnu"

%"class.pxrInternal_v0_24__pxrReserved__::TfCallContext" = type <{ ptr, ptr, i64, ptr, i8, [7 x i8] }>
%"struct.pxrInternal_v0_24__pxrReserved__::Usd_ClipCache::ConcurrentPopulationContext" = type { ptr, %"class.std::mutex" }
%"class.std::mutex" = type { %"class.std::__mutex_base" }
%"class.std::__mutex_base" = type { %union.pthread_mutex_t }
%union.pthread_mutex_t = type { %struct.__pthread_mutex_s }
%struct.__pthread_mutex_s = type { i32, i32, i32, i32, i32, i16, i16, %struct.__pthread_internal_list }
%struct.__pthread_internal_list = type { ptr, ptr }
%"class.pxrInternal_v0_24__pxrReserved__::Usd_ClipCache" = type { %"class.pxrInternal_v0_24__pxrReserved__::SdfPathTable", ptr, ptr }
%"class.pxrInternal_v0_24__pxrReserved__::SdfPathTable" = type { %"class.std::vector", i64, i64 }
%"class.std::vector" = type { %"struct.std::_Vector_base" }
%"struct.std::_Vector_base" = type { %"struct.std::_Vector_base<pxrInternal_v0_24__pxrReserved__::SdfPathTable<std::vector<std::shared_ptr<pxrInternal_v0_24__pxrReserved__::Usd_ClipSet>>>::_Entry *, std::allocator<pxrInternal_v0_24__pxrReserved__::SdfPathTable<std::vector<std::shared_ptr<pxrInternal_v0_24__pxrReserved__::Usd_ClipSet>>>::_Entry *>>::_Vector_impl" }
%"struct.std::_Vector_base<pxrInternal_v0_24__pxrReserved__::SdfPathTable<std::vector<std::shared_ptr<pxrInternal_v0_24__pxrReserved__::Usd_ClipSet>>>::_Entry *, std::allocator<pxrInternal_v0_24__pxrReserved__::SdfPathTable<std::vector<std::shared_ptr<pxrInternal_v0_24__pxrReserved__::Usd_ClipSet>>>::_Entry *>>::_Vector_impl" = type { %"struct.std::_Vector_base<pxrInternal_v0_24__pxrReserved__::SdfPathTable<std::vector<std::shared_ptr<pxrInternal_v0_24__pxrReserved__::Usd_ClipSet>>>::_Entry *, std::allocator<pxrInternal_v0_24__pxrReserved__::SdfPathTable<std::vector<std::shared_ptr<pxrInternal_v0_24__pxrReserved__::Usd_ClipSet>>>::_Entry *>>::_Vector_impl_data" }
%"struct.std::_Vector_base<pxrInternal_v0_24__pxrReserved__::SdfPathTable<std::vector<std::shared_ptr<pxrInternal_v0_24__pxrReserved__::Usd_ClipSet>>>::_Entry *, std::allocator<pxrInternal_v0_24__pxrReserved__::SdfPathTable<std::vector<std::shared_ptr<pxrInternal_v0_24__pxrReserved__::Usd_ClipSet>>>::_Entry *>>::_Vector_impl_data" = type { ptr, ptr, ptr }
%"struct.pxrInternal_v0_24__pxrReserved__::Tf_DiagnosticLiteHelper" = type { %"class.pxrInternal_v0_24__pxrReserved__::TfCallContext", i32, [4 x i8] }

@.str = private unnamed_addr constant [119 x i8] c"generated/home/dtcxzyw/WorkSpace/Projects/compilers/llvm-opt-benchmark/bench/openusd/OpenUSD/pxr/usd/usd/clipCache.cpp\00", align 1
@__func__._ZN32pxrInternal_v0_24__pxrReserved__13Usd_ClipCache27ConcurrentPopulationContextC2ERS0_ = private unnamed_addr constant [28 x i8] c"ConcurrentPopulationContext\00", align 1
@__PRETTY_FUNCTION__._ZN32pxrInternal_v0_24__pxrReserved__13Usd_ClipCache27ConcurrentPopulationContextC2ERS0_ = private unnamed_addr constant [123 x i8] c"pxrInternal_v0_24__pxrReserved__::Usd_ClipCache::ConcurrentPopulationContext::ConcurrentPopulationContext(Usd_ClipCache &)\00", align 1
@.str.1 = private unnamed_addr constant [37 x i8] c"!_cache._concurrentPopulationContext\00", align 1
@.str.12 = private unnamed_addr constant [21 x i8] c"Failed axiom: ' %s '\00", align 1

; Function Attrs: mustprogress nounwind uwtable
define linkonce_odr void @_ZN32pxrInternal_v0_24__pxrReserved__23Tf_DiagnosticLiteHelperC2ERKNS_13TfCallContextENS_16TfDiagnosticTypeE(ptr noundef nonnull align 8 dereferenceable(44) %0, ptr noundef nonnull align 8 dereferenceable(33) %1, i32 noundef %2) unnamed_addr #1 comdat align 2 {
  %4 = alloca ptr, align 8
  %5 = alloca ptr, align 8
  %6 = alloca i32, align 4
  store ptr %0, ptr %4, align 8
  store ptr %1, ptr %5, align 8
  store i32 %2, ptr %6, align 4
  %7 = load ptr, ptr %4, align 8
  %8 = getelementptr inbounds nuw %"struct.pxrInternal_v0_24__pxrReserved__::Tf_DiagnosticLiteHelper", ptr %7, i32 0, i32 0
  %9 = load ptr, ptr %5, align 8
  call void @llvm.memcpy.p0.p0.i64(ptr align 8 %8, ptr align 8 %9, i64 40, i1 false)
  %10 = getelementptr inbounds nuw %"struct.pxrInternal_v0_24__pxrReserved__::Tf_DiagnosticLiteHelper", ptr %7, i32 0, i32 1
  %11 = load i32, ptr %6, align 4
  store i32 %11, ptr %10, align 8
  ret void
}

; Function Attrs: mustprogress nounwind uwtable
define linkonce_odr void @_ZNSt12__mutex_baseC2Ev(ptr noundef nonnull align 8 dereferenceable(40) %0) unnamed_addr #1 comdat align 2 {
  %2 = alloca ptr, align 8
  store ptr %0, ptr %2, align 8
  %3 = load ptr, ptr %2, align 8
  %4 = getelementptr inbounds nuw %"class.std::__mutex_base", ptr %3, i32 0, i32 0
  call void @llvm.memset.p0.i64(ptr align 8 %4, i8 0, i64 40, i1 false)
  %5 = getelementptr inbounds nuw %struct.__pthread_mutex_s, ptr %4, i32 0, i32 4
  store i32 0, ptr %5, align 8
  ret void
}

; Function Attrs: mustprogress uwtable
define linkonce_odr noundef zeroext i1 @_ZN32pxrInternal_v0_24__pxrReserved__14Tf_AxiomHelperEbRKNS_13TfCallContextEPKc(i1 noundef zeroext %0, ptr noundef nonnull align 8 dereferenceable(33) %1, ptr noundef %2) #0 comdat {
  %4 = alloca i8, align 1
  %5 = alloca ptr, align 8
  %6 = alloca ptr, align 8
  %7 = alloca %"struct.pxrInternal_v0_24__pxrReserved__::Tf_DiagnosticLiteHelper", align 8
  %8 = zext i1 %0 to i8
  store i8 %8, ptr %4, align 1
  store ptr %1, ptr %5, align 8
  store ptr %2, ptr %6, align 8
  %9 = load i8, ptr %4, align 1
  %10 = trunc i8 %9 to i1
  br i1 %10, label %11, label %12

11:                                               ; preds = %3
  br label %16

12:                                               ; preds = %3
  %13 = load ptr, ptr %5, align 8
  call void @_ZN32pxrInternal_v0_24__pxrReserved__23Tf_DiagnosticLiteHelperC2ERKNS_13TfCallContextENS_16TfDiagnosticTypeE(ptr noundef nonnull align 8 dereferenceable(44) %7, ptr noundef nonnull align 8 dereferenceable(33) %13, i32 noundef 4)
  %14 = load ptr, ptr %6, align 8
  call void (ptr, ptr, ...) @_ZNK32pxrInternal_v0_24__pxrReserved__23Tf_DiagnosticLiteHelper15IssueFatalErrorEPKcz(ptr noundef nonnull align 8 dereferenceable(44) %7, ptr noundef @.str.12, ptr noundef %14) #14
  unreachable

15:                                               ; No predecessors!
  br label %16

16:                                               ; preds = %15, %11
  %17 = phi i1 [ true, %11 ], [ false, %15 ]
  ret i1 %17
}

; Function Attrs: mustprogress nounwind uwtable
define linkonce_odr void @_ZN32pxrInternal_v0_24__pxrReserved__13TfCallContextC2EPKcS2_mS2_(ptr noundef nonnull align 8 dereferenceable(33) %0, ptr noundef %1, ptr noundef %2, i64 noundef %3, ptr noundef %4) unnamed_addr #1 comdat align 2 {
  %6 = alloca ptr, align 8
  %7 = alloca ptr, align 8
  %8 = alloca ptr, align 8
  %9 = alloca i64, align 8
  %10 = alloca ptr, align 8
  store ptr %0, ptr %6, align 8
  store ptr %1, ptr %7, align 8
  store ptr %2, ptr %8, align 8
  store i64 %3, ptr %9, align 8
  store ptr %4, ptr %10, align 8
  %11 = load ptr, ptr %6, align 8
  %12 = getelementptr inbounds nuw %"class.pxrInternal_v0_24__pxrReserved__::TfCallContext", ptr %11, i32 0, i32 0
  %13 = load ptr, ptr %7, align 8
  store ptr %13, ptr %12, align 8
  %14 = getelementptr inbounds nuw %"class.pxrInternal_v0_24__pxrReserved__::TfCallContext", ptr %11, i32 0, i32 1
  %15 = load ptr, ptr %8, align 8
  store ptr %15, ptr %14, align 8
  %16 = getelementptr inbounds nuw %"class.pxrInternal_v0_24__pxrReserved__::TfCallContext", ptr %11, i32 0, i32 2
  %17 = load i64, ptr %9, align 8
  store i64 %17, ptr %16, align 8
  %18 = getelementptr inbounds nuw %"class.pxrInternal_v0_24__pxrReserved__::TfCallContext", ptr %11, i32 0, i32 3
  %19 = load ptr, ptr %10, align 8
  store ptr %19, ptr %18, align 8
  %20 = getelementptr inbounds nuw %"class.pxrInternal_v0_24__pxrReserved__::TfCallContext", ptr %11, i32 0, i32 4
  store i8 0, ptr %20, align 8
  ret void
}

; Function Attrs: mustprogress nounwind uwtable
define linkonce_odr void @_ZNSt5mutexC2Ev(ptr noundef nonnull align 8 dereferenceable(40) %0) unnamed_addr #1 comdat align 2 {
  %2 = alloca ptr, align 8
  store ptr %0, ptr %2, align 8
  %3 = load ptr, ptr %2, align 8
  call void @_ZNSt12__mutex_baseC2Ev(ptr noundef nonnull align 8 dereferenceable(40) %3) #10
  ret void
}

; Function Attrs: mustprogress uwtable
define void @_ZN32pxrInternal_v0_24__pxrReserved__13Usd_ClipCache27ConcurrentPopulationContextC2ERS0_(ptr noundef nonnull align 8 dereferenceable(48) %0, ptr noundef nonnull align 8 dereferenceable(56) %1) unnamed_addr #0 align 2 {
  %3 = alloca ptr, align 8
  %4 = alloca ptr, align 8
  %5 = alloca %"class.pxrInternal_v0_24__pxrReserved__::TfCallContext", align 8
  store ptr %0, ptr %3, align 8
  store ptr %1, ptr %4, align 8
  %6 = load ptr, ptr %3, align 8
  %7 = getelementptr inbounds nuw %"struct.pxrInternal_v0_24__pxrReserved__::Usd_ClipCache::ConcurrentPopulationContext", ptr %6, i32 0, i32 0
  %8 = load ptr, ptr %4, align 8
  store ptr %8, ptr %7, align 8
  %9 = getelementptr inbounds nuw %"struct.pxrInternal_v0_24__pxrReserved__::Usd_ClipCache::ConcurrentPopulationContext", ptr %6, i32 0, i32 1
  call void @_ZNSt5mutexC2Ev(ptr noundef nonnull align 8 dereferenceable(40) %9) #10
  %10 = getelementptr inbounds nuw %"struct.pxrInternal_v0_24__pxrReserved__::Usd_ClipCache::ConcurrentPopulationContext", ptr %6, i32 0, i32 0
  %11 = load ptr, ptr %10, align 8
  %12 = getelementptr inbounds nuw %"class.pxrInternal_v0_24__pxrReserved__::Usd_ClipCache", ptr %11, i32 0, i32 1
  %13 = load ptr, ptr %12, align 8
  %14 = icmp ne ptr %13, null
  %15 = xor i1 %14, true
  call void @_ZN32pxrInternal_v0_24__pxrReserved__13TfCallContextC2EPKcS2_mS2_(ptr noundef nonnull align 8 dereferenceable(33) %5, ptr noundef @.str, ptr noundef @__func__._ZN32pxrInternal_v0_24__pxrReserved__13Usd_ClipCache27ConcurrentPopulationContextC2ERS0_, i64 noundef 37, ptr noundef @__PRETTY_FUNCTION__._ZN32pxrInternal_v0_24__pxrReserved__13Usd_ClipCache27ConcurrentPopulationContextC2ERS0_)
  %16 = call noundef zeroext i1 @_ZN32pxrInternal_v0_24__pxrReserved__14Tf_AxiomHelperEbRKNS_13TfCallContextEPKc(i1 noundef zeroext %15, ptr noundef nonnull align 8 dereferenceable(33) %5, ptr noundef @.str.1)
  %17 = getelementptr inbounds nuw %"struct.pxrInternal_v0_24__pxrReserved__::Usd_ClipCache::ConcurrentPopulationContext", ptr %6, i32 0, i32 0
  %18 = load ptr, ptr %17, align 8
  %19 = getelementptr inbounds nuw %"class.pxrInternal_v0_24__pxrReserved__::Usd_ClipCache", ptr %18, i32 0, i32 1
  store ptr %6, ptr %19, align 8
  ret void
}