; Function Attrs: mustprogress uwtable
define void @_ZN32pxrInternal_v0_24__pxrReserved__13Usd_ClipCache27ConcurrentPopulationContextC2ERS0_(ptr noundef nonnull align 8 dereferenceable(48) %0, ptr noundef nonnull align 8 dereferenceable(56) %1) unnamed_addr #0 align 2 {
  %3 = alloca %"struct.pxrInternal_v0_24__pxrReserved__::Tf_DiagnosticLiteHelper", align 8
  store ptr %1, ptr %0, align 8
  %4 = getelementptr inbounds nuw i8, ptr %0, i64 8
  tail call void @llvm.memset.p0.i64(ptr noundef nonnull align 8 dereferenceable(40) %4, i8 0, i64 40, i1 false)
  %5 = getelementptr inbounds nuw i8, ptr %1, i64 40
  %6 = load ptr, ptr %5, align 8
  %.not = icmp eq ptr %6, null
  call void @llvm.lifetime.start.p0(i64 48, ptr nonnull %3)
  br i1 %.not, label %_ZN32pxrInternal_v0_24__pxrReserved__14Tf_AxiomHelperEbRKNS_13TfCallContextEPKc.exit, label %7

7:                                                ; preds = %2
  store ptr @.str, ptr %3, align 8
  %.sroa.2.0..sroa_idx = getelementptr inbounds i8, ptr %3, i64 8
  store ptr @__func__._ZN32pxrInternal_v0_24__pxrReserved__13Usd_ClipCache27ConcurrentPopulationContextC2ERS0_, ptr %.sroa.2.0..sroa_idx, align 8
  %.sroa.3.0..sroa_idx = getelementptr inbounds i8, ptr %3, i64 16
  store i64 37, ptr %.sroa.3.0..sroa_idx, align 8
  %.sroa.4.0..sroa_idx = getelementptr inbounds i8, ptr %3, i64 24
  store ptr @__PRETTY_FUNCTION__._ZN32pxrInternal_v0_24__pxrReserved__13Usd_ClipCache27ConcurrentPopulationContextC2ERS0_, ptr %.sroa.4.0..sroa_idx, align 8
  %.sroa.5.0..sroa_idx = getelementptr inbounds i8, ptr %3, i64 32
  store i8 0, ptr %.sroa.5.0..sroa_idx, align 8
  %8 = getelementptr inbounds nuw i8, ptr %3, i64 40
  store i32 4, ptr %8, align 8
  call void (ptr, ptr, ...) @_ZNK32pxrInternal_v0_24__pxrReserved__23Tf_DiagnosticLiteHelper15IssueFatalErrorEPKcz(ptr noundef nonnull align 8 dereferenceable(44) %3, ptr noundef nonnull @.str.12, ptr noundef nonnull @.str.1) #19
  unreachable

_ZN32pxrInternal_v0_24__pxrReserved__14Tf_AxiomHelperEbRKNS_13TfCallContextEPKc.exit: ; preds = %2
  call void @llvm.lifetime.end.p0(i64 48, ptr nonnull %3)
  store ptr %0, ptr %5, align 8
  ret void
}